target datalayout = "e-m:e-p270:32:32-p271:32:32-p272:64:64-i64:64-i128:128-f80:128-n8:16:32:64-S128"
target triple = "x86_64-pc-linux-gnu"

%struct.IncludedGC = type { ptr, i32, ptr, ptr }

@_ZL11IncludedGCs = internal global [6 x %struct.IncludedGC] zeroinitializer, align 16

; Function Attrs: mustprogress nounwind uwtable
define hidden noundef zeroext i1 @_ZN8GCConfig26is_exactly_one_gc_selectedEv() #1 align 2 {
  %1 = alloca i1, align 1
  %2 = alloca i32, align 4
  %3 = alloca ptr, align 8
  store i32 0, ptr %2, align 4
  store ptr @_ZL11IncludedGCs, ptr %3, align 8
  br label %4

4:                                                ; preds = %29, %0
  %5 = load ptr, ptr %3, align 8
  %6 = icmp ult ptr %5, getelementptr inbounds ([6 x %struct.IncludedGC], ptr @_ZL11IncludedGCs, i64 0, i64 6)
  br i1 %6, label %7, label %32

7:                                                ; preds = %4
  %8 = load ptr, ptr %3, align 8
  %9 = getelementptr inbounds %struct.IncludedGC, ptr %8, i32 0, i32 0
  %10 = load ptr, ptr %9, align 8
  %11 = load i8, ptr %10, align 1
  %12 = trunc i8 %11 to i1
  br i1 %12, label %13, label %28

13:                                               ; preds = %7
  %14 = load ptr, ptr %3, align 8
  %15 = getelementptr inbounds %struct.IncludedGC, ptr %14, i32 0, i32 1
  %16 = load i32, ptr %15, align 8
  %17 = load i32, ptr %2, align 4
  %18 = icmp eq i32 %16, %17
  br i1 %18, label %22, label %19

19:                                               ; preds = %13
  %20 = load i32, ptr %2, align 4
  %21 = icmp eq i32 %20, 0
  br i1 %21, label %22, label %26

22:                                               ; preds = %19, %13
  %23 = load ptr, ptr %3, align 8
  %24 = getelementptr inbounds %struct.IncludedGC, ptr %23, i32 0, i32 1
  %25 = load i32, ptr %24, align 8
  store i32 %25, ptr %2, align 4
  br label %27

26:                                               ; preds = %19
  store i1 false, ptr %1, align 1
  br label %35

27:                                               ; preds = %22
  br label %28

28:                                               ; preds = %27, %7
  br label %29

29:                                               ; preds = %28
  %30 = load ptr, ptr %3, align 8
  %31 = getelementptr inbounds %struct.IncludedGC, ptr %30, i32 1
  store ptr %31, ptr %3, align 8
  br label %4, !llvm.loop !8

32:                                               ; preds = %4
  %33 = load i32, ptr %2, align 4
  %34 = icmp ne i32 %33, 0
  store i1 %34, ptr %1, align 1
  br label %35

35:                                               ; preds = %32, %26
  %36 = load i1, ptr %1, align 1
  ret i1 %36
}