; Function Attrs: mustprogress nofree norecurse nosync nounwind willreturn memory(read, inaccessiblemem: none) uwtable
define hidden noundef zeroext i1 @_ZN8GCConfig26is_exactly_one_gc_selectedEv() local_unnamed_addr #3 align 2 {
  br label %1

1:                                                ; preds = %0, %10
  %.0.idx13 = phi i64 [ 0, %0 ], [ %.0.add, %10 ]
  %.0912 = phi i32 [ 0, %0 ], [ %.1, %10 ]
  %.0.ptr14 = getelementptr inbounds i8, ptr @_ZL11IncludedGCs, i64 %.0.idx13
  %2 = load ptr, ptr %.0.ptr14, align 16
  %3 = load i8, ptr %2, align 1
  %4 = trunc i8 %3 to i1
  br i1 %4, label %5, label %10

5:                                                ; preds = %1
  %6 = getelementptr inbounds i8, ptr %.0.ptr14, i64 8
  %7 = load i32, ptr %6, align 8
  %8 = icmp eq i32 %7, %.0912
  %9 = icmp eq i32 %.0912, 0
  %or.cond = or i1 %9, %8
  br i1 %or.cond, label %10, label %.loopexit

10:                                               ; preds = %5, %1
  %.1 = phi i32 [ %.0912, %1 ], [ %7, %5 ]
  %.0.add = add nuw nsw i64 %.0.idx13, 32
  %11 = icmp ult i64 %.0.idx13, 160
  br i1 %11, label %1, label %12, !llvm.loop !8

12:                                               ; preds = %10
  %13 = icmp ne i32 %.1, 0
  br label %.loopexit

.loopexit:                                        ; preds = %5, %12
  %.010 = phi i1 [ %13, %12 ], [ false, %5 ]
  ret i1 %.010
}